target datalayout = "e-m:e-p270:32:32-p271:32:32-p272:64:64-i64:64-i128:128-f80:128-n8:16:32:64-S128"
target triple = "x86_64-pc-linux-gnu"

%struct.AVRational = type { i32, i32 }
%struct.AVStream = type { ptr, i32, i32, ptr, ptr, %struct.AVRational, i64, i64, i64, i32, i32, %struct.AVRational, ptr, %struct.AVRational, %struct.AVPacket, i32, %struct.AVRational, i32 }
%struct.AVPacket = type { ptr, i64, i64, ptr, i32, i32, i32, ptr, i32, i64, i64, ptr, ptr, %struct.AVRational }
%struct.FFStream = type { %struct.AVStream, ptr, i32, ptr, i32, ptr, i32, %struct.anon, i32, i32, %struct.FFFrac, ptr, ptr, i32, i32, i64, i64, i32, i32, i32, i64, i64, i64, i32, i64, i64, i64, i32, i32, [17 x i64], [17 x i8], [17 x i64], i64, i8, i8, %struct.AVRational, %struct.AVProbeData, ptr, i64, i32, i32, i32, ptr, i32, i32, i64, i64, ptr, %struct.AVRational }
%struct.anon = type { ptr, i32 }
%struct.FFFrac = type { i64, i64, i64 }
%struct.AVProbeData = type { ptr, ptr, i32, ptr }
%struct.AVChannelLayout = type { i32, i32, %union.anon.3, ptr }
%union.anon.3 = type { i64 }
%struct.AVCodecDescriptor = type { i32, i32, ptr, ptr, i32, ptr, ptr }
%struct.AVCodecContext = type { ptr, i32, i32, ptr, i32, i32, ptr, ptr, ptr, i64, i32, i32, ptr, i32, %struct.AVRational, %struct.AVRational, %struct.AVRational, i32, i32, i32, i32, i32, %struct.AVRational, i32, i32, i32, i32, i32, i32, i32, i32, i32, i32, i32, ptr, ptr, i32, float, float, float, float, float, float, float, float, float, i32, i32, i32, i32, i32, i32, i32, i32, i32, i32, i32, i32, ptr, ptr, ptr, i32, i32, i32, i32, i32, i32, i32, i32, i32, i32, %struct.AVChannelLayout, i32, i32, i32, i32, i32, i32, i32, i32, ptr, i32, i32, i32, float, float, i32, i32, i32, i32, i32, ptr, i64, i64, float, float, i32, i32, ptr, ptr, i32, i32, i32, i32, i32, ptr, ptr, ptr, ptr, i32, i32, [8 x i64], i32, i32, i32, i32, i32, i32, i32, ptr, ptr, i32, i32, i32, i32, i32, i32, i32, i32, i32, i32, ptr, ptr, i32, i32, ptr, ptr, ptr, ptr, i32, i32, i64, i32, i32, i64, ptr, i64, ptr, i32, ptr, i32 }

; Function Attrs: alwaysinline nounwind uwtable
define internal ptr @ffstream(ptr noundef %0) #2 {
  %2 = alloca ptr, align 8
  store ptr %0, ptr %2, align 8, !tbaa !10
  %3 = load ptr, ptr %2, align 8, !tbaa !10
  ret ptr %3
}

; Function Attrs: inlinehint nounwind uwtable
define internal double @av_q2d(i64 %0) #5 {
  %2 = alloca %struct.AVRational, align 4
  store i64 %0, ptr %2, align 4
  %3 = getelementptr inbounds nuw %struct.AVRational, ptr %2, i32 0, i32 0
  %4 = load i32, ptr %3, align 4, !tbaa !159
  %5 = sitofp i32 %4 to double
  %6 = getelementptr inbounds nuw %struct.AVRational, ptr %2, i32 0, i32 1
  %7 = load i32, ptr %6, align 4, !tbaa !160
  %8 = sitofp i32 %7 to double
  %9 = fdiv nsz double %5, %8
  ret double %9
}

; Function Attrs: alwaysinline nounwind uwtable
define internal ptr @cffstream(ptr noundef %0) #2 {
  %2 = alloca ptr, align 8
  store ptr %0, ptr %2, align 8, !tbaa !10
  %3 = load ptr, ptr %2, align 8, !tbaa !10
  ret ptr %3
}

; Function Attrs: nounwind uwtable
define i64 @av_guess_frame_rate(ptr noundef %0, ptr noundef %1, ptr noundef %2) #0 {
  %4 = alloca %struct.AVRational, align 4
  %5 = alloca ptr, align 8
  %6 = alloca ptr, align 8
  %7 = alloca ptr, align 8
  %8 = alloca ptr, align 8
  %9 = alloca %struct.AVRational, align 4
  %10 = alloca ptr, align 8
  %11 = alloca %struct.AVRational, align 4
  %12 = alloca %struct.AVRational, align 4
  store ptr %0, ptr %5, align 8, !tbaa !47
  store ptr %1, ptr %6, align 8, !tbaa !10
  store ptr %2, ptr %7, align 8, !tbaa !157
  %13 = load ptr, ptr %6, align 8, !tbaa !10
  %14 = getelementptr inbounds nuw %struct.AVStream, ptr %13, i32 0, i32 16
  call void @llvm.memcpy.p0.p0.i64(ptr align 4 %4, ptr align 4 %14, i64 8, i1 false), !tbaa.struct !90
  call void @llvm.lifetime.start.p0(i64 8, ptr %8) #11
  %15 = load ptr, ptr %6, align 8, !tbaa !10
  %16 = call ptr @cffstream(ptr noundef %15)
  %17 = getelementptr inbounds nuw %struct.FFStream, ptr %16, i32 0, i32 47
  %18 = load ptr, ptr %17, align 8, !tbaa !161
  store ptr %18, ptr %8, align 8, !tbaa !162
  call void @llvm.lifetime.start.p0(i64 8, ptr %9) #11
  %19 = load ptr, ptr %6, align 8, !tbaa !10
  %20 = getelementptr inbounds nuw %struct.AVStream, ptr %19, i32 0, i32 13
  call void @llvm.memcpy.p0.p0.i64(ptr align 4 %9, ptr align 8 %20, i64 8, i1 false), !tbaa.struct !90
  %21 = getelementptr inbounds nuw %struct.AVRational, ptr %9, i32 0, i32 0
  %22 = load i32, ptr %21, align 4, !tbaa !159
  %23 = icmp sgt i32 %22, 0
  br i1 %23, label %24, label %45

24:                                               ; preds = %3
  %25 = getelementptr inbounds nuw %struct.AVRational, ptr %9, i32 0, i32 1
  %26 = load i32, ptr %25, align 4, !tbaa !160
  %27 = icmp sgt i32 %26, 0
  br i1 %27, label %28, label %45

28:                                               ; preds = %24
  %29 = getelementptr inbounds nuw %struct.AVRational, ptr %4, i32 0, i32 0
  %30 = load i32, ptr %29, align 4, !tbaa !159
  %31 = icmp sgt i32 %30, 0
  br i1 %31, label %32, label %45

32:                                               ; preds = %28
  %33 = getelementptr inbounds nuw %struct.AVRational, ptr %4, i32 0, i32 1
  %34 = load i32, ptr %33, align 4, !tbaa !160
  %35 = icmp sgt i32 %34, 0
  br i1 %35, label %36, label %45

36:                                               ; preds = %32
  %37 = load i64, ptr %9, align 4
  %38 = call nsz double @av_q2d(i64 %37)
  %39 = fcmp nsz olt double %38, 7.000000e+01
  br i1 %39, label %40, label %45

40:                                               ; preds = %36
  %41 = load i64, ptr %4, align 4
  %42 = call nsz double @av_q2d(i64 %41)
  %43 = fcmp nsz ogt double %42, 2.100000e+02
  br i1 %43, label %44, label %45

44:                                               ; preds = %40
  call void @llvm.memcpy.p0.p0.i64(ptr align 4 %4, ptr align 4 %9, i64 8, i1 false), !tbaa.struct !90
  br label %45

45:                                               ; preds = %44, %40, %36, %32, %28, %24, %3
  %46 = load ptr, ptr %8, align 8, !tbaa !162
  %47 = icmp ne ptr %46, null
  br i1 %47, label %48, label %90

48:                                               ; preds = %45
  %49 = load ptr, ptr %8, align 8, !tbaa !162
  %50 = getelementptr inbounds nuw %struct.AVCodecDescriptor, ptr %49, i32 0, i32 4
  %51 = load i32, ptr %50, align 8, !tbaa !163
  %52 = and i32 %51, 16
  %53 = icmp ne i32 %52, 0
  br i1 %53, label %54, label %90

54:                                               ; preds = %48
  call void @llvm.lifetime.start.p0(i64 8, ptr %10) #11
  %55 = load ptr, ptr %6, align 8, !tbaa !10
  %56 = call ptr @ffstream(ptr noundef %55)
  %57 = getelementptr inbounds nuw %struct.FFStream, ptr %56, i32 0, i32 5
  %58 = load ptr, ptr %57, align 8, !tbaa !166
  store ptr %58, ptr %10, align 8, !tbaa !167
  call void @llvm.lifetime.start.p0(i64 8, ptr %11) #11
  %59 = load ptr, ptr %10, align 8, !tbaa !167
  %60 = getelementptr inbounds nuw %struct.AVCodecContext, ptr %59, i32 0, i32 16
  call void @llvm.memcpy.p0.p0.i64(ptr align 4 %11, ptr align 4 %60, i64 8, i1 false), !tbaa.struct !90
  %61 = getelementptr inbounds nuw %struct.AVRational, ptr %11, i32 0, i32 0
  %62 = load i32, ptr %61, align 4, !tbaa !159
  %63 = icmp sgt i32 %62, 0
  br i1 %63, label %64, label %89

64:                                               ; preds = %54
  %65 = getelementptr inbounds nuw %struct.AVRational, ptr %11, i32 0, i32 1
  %66 = load i32, ptr %65, align 4, !tbaa !160
  %67 = icmp sgt i32 %66, 0
  br i1 %67, label %68, label %89

68:                                               ; preds = %64
  %69 = getelementptr inbounds nuw %struct.AVRational, ptr %4, i32 0, i32 0
  %70 = load i32, ptr %69, align 4, !tbaa !159
  %71 = icmp eq i32 %70, 0
  br i1 %71, label %88, label %72

72:                                               ; preds = %68
  %73 = load i64, ptr %11, align 4
  %74 = call nsz double @av_q2d(i64 %73)
  %75 = load i64, ptr %4, align 4
  %76 = call nsz double @av_q2d(i64 %75)
  %77 = fmul nsz double %76, 0x3FE6666666666666
  %78 = fcmp nsz olt double %74, %77
  br i1 %78, label %79, label %89

79:                                               ; preds = %72
  %80 = load i64, ptr %9, align 4
  %81 = load i64, ptr %4, align 4
  %82 = call i64 @av_div_q(i64 %80, i64 %81) #14
  store i64 %82, ptr %12, align 4
  %83 = load i64, ptr %12, align 4
  %84 = call nsz double @av_q2d(i64 %83)
  %85 = fsub nsz double 1.000000e+00, %84
  %86 = call nsz double @llvm.fabs.f64(double %85)
  %87 = fcmp nsz ogt double %86, 1.000000e-01
  br i1 %87, label %88, label %89

88:                                               ; preds = %79, %68
  call void @llvm.memcpy.p0.p0.i64(ptr align 4 %4, ptr align 4 %11, i64 8, i1 false), !tbaa.struct !90
  br label %89

89:                                               ; preds = %88, %79, %72, %64, %54
  call void @llvm.lifetime.end.p0(i64 8, ptr %11) #11
  call void @llvm.lifetime.end.p0(i64 8, ptr %10) #11
  br label %90

90:                                               ; preds = %89, %48, %45
  call void @llvm.lifetime.end.p0(i64 8, ptr %9) #11
  call void @llvm.lifetime.end.p0(i64 8, ptr %8) #11
  %91 = load i64, ptr %4, align 4
  ret i64 %91
}